target datalayout = "e-m:e-p270:32:32-p271:32:32-p272:64:64-i64:64-i128:128-f80:128-n8:16:32:64-S128"
target triple = "x86_64-pc-linux-gnu"

%"class.g2o::SparseOptimizerTerminateAction" = type { %"class.g2o::HyperGraphAction", double, double, i8, i32 }
%"class.g2o::HyperGraphAction" = type { ptr }
%"class.g2o::HyperGraphAction::ParametersIteration" = type <{ %"class.g2o::HyperGraphAction::Parameters", i32, [4 x i8] }>
%"class.g2o::HyperGraphAction::Parameters" = type { ptr }
%"class.g2o::SparseOptimizer" = type <{ %"struct.g2o::OptimizableGraph", ptr, i8, [7 x i8], %"class.std::vector.25", %"class.std::vector.25", %"class.std::vector.30", ptr, %"class.std::vector.35", i8, [7 x i8] }>
%"struct.g2o::OptimizableGraph" = type { %"class.g2o::HyperGraph", %"class.std::map", i64, %"class.std::vector", %"class.g2o::ParameterContainer", %"class.g2o::JacobianWorkspace" }
%"class.g2o::HyperGraph" = type { ptr, %"class.std::unordered_map", %"class.std::set" }
%"class.std::unordered_map" = type { %"class.std::_Hashtable" }
%"class.std::_Hashtable" = type { ptr, i64, %"struct.std::__detail::_Hash_node_base", i64, %"struct.std::__detail::_Prime_rehash_policy", ptr }
%"struct.std::__detail::_Hash_node_base" = type { ptr }
%"struct.std::__detail::_Prime_rehash_policy" = type { float, i64 }
%"class.std::set" = type { %"class.std::_Rb_tree" }
%"class.std::_Rb_tree" = type { %"struct.std::_Rb_tree<g2o::HyperGraph::Edge *, g2o::HyperGraph::Edge *, std::_Identity<g2o::HyperGraph::Edge *>, std::less<g2o::HyperGraph::Edge *>>::_Rb_tree_impl" }
%"struct.std::_Rb_tree<g2o::HyperGraph::Edge *, g2o::HyperGraph::Edge *, std::_Identity<g2o::HyperGraph::Edge *>, std::less<g2o::HyperGraph::Edge *>>::_Rb_tree_impl" = type { [8 x i8], %"struct.std::_Rb_tree_header" }
%"struct.std::_Rb_tree_header" = type { %"struct.std::_Rb_tree_node_base", i64 }
%"struct.std::_Rb_tree_node_base" = type { i32, ptr, ptr, ptr }
%"class.std::map" = type { %"class.std::_Rb_tree.6" }
%"class.std::_Rb_tree.6" = type { %"struct.std::_Rb_tree<std::__cxx11::basic_string<char>, std::pair<const std::__cxx11::basic_string<char>, std::__cxx11::basic_string<char>>, std::_Select1st<std::pair<const std::__cxx11::basic_string<char>, std::__cxx11::basic_string<char>>>, std::less<std::__cxx11::basic_string<char>>>::_Rb_tree_impl" }
%"struct.std::_Rb_tree<std::__cxx11::basic_string<char>, std::pair<const std::__cxx11::basic_string<char>, std::__cxx11::basic_string<char>>, std::_Select1st<std::pair<const std::__cxx11::basic_string<char>, std::__cxx11::basic_string<char>>>, std::less<std::__cxx11::basic_string<char>>>::_Rb_tree_impl" = type { [8 x i8], %"struct.std::_Rb_tree_header" }
%"class.std::vector" = type { %"struct.std::_Vector_base" }
%"struct.std::_Vector_base" = type { %"struct.std::_Vector_base<std::set<g2o::HyperGraphAction *>, std::allocator<std::set<g2o::HyperGraphAction *>>>::_Vector_impl" }
%"struct.std::_Vector_base<std::set<g2o::HyperGraphAction *>, std::allocator<std::set<g2o::HyperGraphAction *>>>::_Vector_impl" = type { %"struct.std::_Vector_base<std::set<g2o::HyperGraphAction *>, std::allocator<std::set<g2o::HyperGraphAction *>>>::_Vector_impl_data" }
%"struct.std::_Vector_base<std::set<g2o::HyperGraphAction *>, std::allocator<std::set<g2o::HyperGraphAction *>>>::_Vector_impl_data" = type { ptr, ptr, ptr }
%"class.g2o::ParameterContainer" = type <{ ptr, %"class.std::map.14", i8, [7 x i8] }>
%"class.std::map.14" = type { %"class.std::_Rb_tree.15" }
%"class.std::_Rb_tree.15" = type { %"struct.std::_Rb_tree<int, std::pair<const int, g2o::Parameter *>, std::_Select1st<std::pair<const int, g2o::Parameter *>>, std::less<int>>::_Rb_tree_impl" }
%"struct.std::_Rb_tree<int, std::pair<const int, g2o::Parameter *>, std::_Select1st<std::pair<const int, g2o::Parameter *>>, std::less<int>>::_Rb_tree_impl" = type { [8 x i8], %"struct.std::_Rb_tree_header" }
%"class.g2o::JacobianWorkspace" = type { %"class.std::vector.20", i32, i32 }
%"class.std::vector.20" = type { %"struct.std::_Vector_base.21" }
%"struct.std::_Vector_base.21" = type { %"struct.std::_Vector_base<Eigen::Matrix<double, -1, 1>, std::allocator<Eigen::Matrix<double, -1, 1>>>::_Vector_impl" }
%"struct.std::_Vector_base<Eigen::Matrix<double, -1, 1>, std::allocator<Eigen::Matrix<double, -1, 1>>>::_Vector_impl" = type { %"struct.std::_Vector_base<Eigen::Matrix<double, -1, 1>, std::allocator<Eigen::Matrix<double, -1, 1>>>::_Vector_impl_data" }
%"struct.std::_Vector_base<Eigen::Matrix<double, -1, 1>, std::allocator<Eigen::Matrix<double, -1, 1>>>::_Vector_impl_data" = type { ptr, ptr, ptr }
%"class.std::vector.25" = type { %"struct.std::_Vector_base.26" }
%"struct.std::_Vector_base.26" = type { %"struct.std::_Vector_base<g2o::OptimizableGraph::Vertex *, std::allocator<g2o::OptimizableGraph::Vertex *>>::_Vector_impl" }
%"struct.std::_Vector_base<g2o::OptimizableGraph::Vertex *, std::allocator<g2o::OptimizableGraph::Vertex *>>::_Vector_impl" = type { %"struct.std::_Vector_base<g2o::OptimizableGraph::Vertex *, std::allocator<g2o::OptimizableGraph::Vertex *>>::_Vector_impl_data" }
%"struct.std::_Vector_base<g2o::OptimizableGraph::Vertex *, std::allocator<g2o::OptimizableGraph::Vertex *>>::_Vector_impl_data" = type { ptr, ptr, ptr }
%"class.std::vector.30" = type { %"struct.std::_Vector_base.31" }
%"struct.std::_Vector_base.31" = type { %"struct.std::_Vector_base<g2o::OptimizableGraph::Edge *, std::allocator<g2o::OptimizableGraph::Edge *>>::_Vector_impl" }
%"struct.std::_Vector_base<g2o::OptimizableGraph::Edge *, std::allocator<g2o::OptimizableGraph::Edge *>>::_Vector_impl" = type { %"struct.std::_Vector_base<g2o::OptimizableGraph::Edge *, std::allocator<g2o::OptimizableGraph::Edge *>>::_Vector_impl_data" }
%"struct.std::_Vector_base<g2o::OptimizableGraph::Edge *, std::allocator<g2o::OptimizableGraph::Edge *>>::_Vector_impl_data" = type { ptr, ptr, ptr }
%"class.std::vector.35" = type { %"struct.std::_Vector_base.36" }
%"struct.std::_Vector_base.36" = type { %"struct.std::_Vector_base<g2o::G2OBatchStatistics, std::allocator<g2o::G2OBatchStatistics>>::_Vector_impl" }
%"struct.std::_Vector_base<g2o::G2OBatchStatistics, std::allocator<g2o::G2OBatchStatistics>>::_Vector_impl" = type { %"struct.std::_Vector_base<g2o::G2OBatchStatistics, std::allocator<g2o::G2OBatchStatistics>>::_Vector_impl_data" }
%"struct.std::_Vector_base<g2o::G2OBatchStatistics, std::allocator<g2o::G2OBatchStatistics>>::_Vector_impl_data" = type { ptr, ptr, ptr }

; Function Attrs: mustprogress nounwind uwtable
define linkonce_odr noundef ptr @_ZNK3g2o15SparseOptimizer13forceStopFlagEv(ptr noundef nonnull align 8 dereferenceable(409) %0) #4 comdat align 2 {
  %2 = alloca ptr, align 8
  store ptr %0, ptr %2, align 8, !tbaa !34
  %3 = load ptr, ptr %2, align 8
  %4 = getelementptr inbounds nuw %"class.g2o::SparseOptimizer", ptr %3, i32 0, i32 1
  %5 = load ptr, ptr %4, align 8, !tbaa !45
  ret ptr %5
}

; Function Attrs: mustprogress uwtable
define void @_ZN3g2o30SparseOptimizerTerminateAction20setOptimizerStopFlagEPKNS_15SparseOptimizerEb(ptr noundef nonnull align 8 dereferenceable(32) %0, ptr noundef %1, i1 noundef zeroext %2) #6 align 2 {
  %4 = alloca ptr, align 8
  %5 = alloca ptr, align 8
  %6 = alloca i8, align 1
  store ptr %0, ptr %4, align 8, !tbaa !14
  store ptr %1, ptr %5, align 8, !tbaa !34
  %7 = zext i1 %2 to i8
  store i8 %7, ptr %6, align 1, !tbaa !41
  %8 = load ptr, ptr %4, align 8
  %9 = load ptr, ptr %5, align 8, !tbaa !34
  %10 = call noundef ptr @_ZNK3g2o15SparseOptimizer13forceStopFlagEv(ptr noundef nonnull align 8 dereferenceable(409) %9)
  %11 = icmp ne ptr %10, null
  br i1 %11, label %12, label %18

12:                                               ; preds = %3
  %13 = load i8, ptr %6, align 1, !tbaa !41, !range !42, !noundef !43
  %14 = trunc i8 %13 to i1
  %15 = load ptr, ptr %5, align 8, !tbaa !34
  %16 = call noundef ptr @_ZNK3g2o15SparseOptimizer13forceStopFlagEv(ptr noundef nonnull align 8 dereferenceable(409) %15)
  %17 = zext i1 %14 to i8
  store i8 %17, ptr %16, align 1, !tbaa !41
  br label %25

18:                                               ; preds = %3
  %19 = load i8, ptr %6, align 1, !tbaa !41, !range !42, !noundef !43
  %20 = trunc i8 %19 to i1
  %21 = getelementptr inbounds nuw %"class.g2o::SparseOptimizerTerminateAction", ptr %8, i32 0, i32 3
  %22 = zext i1 %20 to i8
  store i8 %22, ptr %21, align 8, !tbaa !25
  %23 = load ptr, ptr %5, align 8, !tbaa !34
  %24 = getelementptr inbounds nuw %"class.g2o::SparseOptimizerTerminateAction", ptr %8, i32 0, i32 3
  call void @_ZN3g2o15SparseOptimizer16setForceStopFlagEPb(ptr noundef nonnull align 8 dereferenceable(409) %23, ptr noundef %24)
  br label %25

25:                                               ; preds = %18, %12
  ret void
}

; Function Attrs: mustprogress uwtable
define noundef ptr @_ZN3g2o30SparseOptimizerTerminateActionclEPKNS_10HyperGraphEPNS_16HyperGraphAction10ParametersE(ptr noundef nonnull align 8 dereferenceable(32) %0, ptr noundef %1, ptr noundef %2) unnamed_addr #6 align 2 {
  %4 = alloca ptr, align 8
  %5 = alloca ptr, align 8
  %6 = alloca ptr, align 8
  %7 = alloca ptr, align 8
  %8 = alloca ptr, align 8
  %9 = alloca i8, align 1
  %10 = alloca double, align 8
  %11 = alloca double, align 8
  store ptr %0, ptr %4, align 8, !tbaa !14
  store ptr %1, ptr %5, align 8, !tbaa !30
  store ptr %2, ptr %6, align 8, !tbaa !32
  %12 = load ptr, ptr %4, align 8
  call void @llvm.lifetime.start.p0(i64 8, ptr %7) #3
  %13 = load ptr, ptr %5, align 8, !tbaa !30
  store ptr %13, ptr %7, align 8, !tbaa !34
  call void @llvm.lifetime.start.p0(i64 8, ptr %8) #3
  %14 = load ptr, ptr %6, align 8, !tbaa !32
  store ptr %14, ptr %8, align 8, !tbaa !36
  %15 = load ptr, ptr %7, align 8, !tbaa !34
  call void @_ZN3g2o15SparseOptimizer19computeActiveErrorsEv(ptr noundef nonnull align 8 dereferenceable(409) %15)
  %16 = load ptr, ptr %8, align 8, !tbaa !36
  %17 = getelementptr inbounds nuw %"class.g2o::HyperGraphAction::ParametersIteration", ptr %16, i32 0, i32 1
  %18 = load i32, ptr %17, align 8, !tbaa !38
  %19 = icmp slt i32 %18, 0
  br i1 %19, label %20, label %22

20:                                               ; preds = %3
  %21 = load ptr, ptr %7, align 8, !tbaa !34
  call void @_ZN3g2o30SparseOptimizerTerminateAction20setOptimizerStopFlagEPKNS_15SparseOptimizerEb(ptr noundef nonnull align 8 dereferenceable(32) %12, ptr noundef %21, i1 noundef zeroext false)
  br label %66

22:                                               ; preds = %3
  %23 = load ptr, ptr %8, align 8, !tbaa !36
  %24 = getelementptr inbounds nuw %"class.g2o::HyperGraphAction::ParametersIteration", ptr %23, i32 0, i32 1
  %25 = load i32, ptr %24, align 8, !tbaa !38
  %26 = icmp eq i32 %25, 0
  br i1 %26, label %27, label %31

27:                                               ; preds = %22
  %28 = load ptr, ptr %7, align 8, !tbaa !34
  %29 = call noundef double @_ZNK3g2o15SparseOptimizer16activeRobustChi2Ev(ptr noundef nonnull align 8 dereferenceable(409) %28)
  %30 = getelementptr inbounds nuw %"class.g2o::SparseOptimizerTerminateAction", ptr %12, i32 0, i32 2
  store double %29, ptr %30, align 8, !tbaa !24
  br label %65

31:                                               ; preds = %22
  call void @llvm.lifetime.start.p0(i64 1, ptr %9) #3
  store i8 0, ptr %9, align 1, !tbaa !41
  %32 = load ptr, ptr %8, align 8, !tbaa !36
  %33 = getelementptr inbounds nuw %"class.g2o::HyperGraphAction::ParametersIteration", ptr %32, i32 0, i32 1
  %34 = load i32, ptr %33, align 8, !tbaa !38
  %35 = getelementptr inbounds nuw %"class.g2o::SparseOptimizerTerminateAction", ptr %12, i32 0, i32 4
  %36 = load i32, ptr %35, align 4, !tbaa !26
  %37 = icmp slt i32 %34, %36
  br i1 %37, label %38, label %58

38:                                               ; preds = %31
  call void @llvm.lifetime.start.p0(i64 8, ptr %10) #3
  %39 = load ptr, ptr %7, align 8, !tbaa !34
  %40 = call noundef double @_ZNK3g2o15SparseOptimizer16activeRobustChi2Ev(ptr noundef nonnull align 8 dereferenceable(409) %39)
  store double %40, ptr %10, align 8, !tbaa !29
  call void @llvm.lifetime.start.p0(i64 8, ptr %11) #3
  %41 = getelementptr inbounds nuw %"class.g2o::SparseOptimizerTerminateAction", ptr %12, i32 0, i32 2
  %42 = load double, ptr %41, align 8, !tbaa !24
  %43 = load double, ptr %10, align 8, !tbaa !29
  %44 = fsub double %42, %43
  %45 = load double, ptr %10, align 8, !tbaa !29
  %46 = fdiv double %44, %45
  store double %46, ptr %11, align 8, !tbaa !29
  %47 = load double, ptr %10, align 8, !tbaa !29
  %48 = getelementptr inbounds nuw %"class.g2o::SparseOptimizerTerminateAction", ptr %12, i32 0, i32 2
  store double %47, ptr %48, align 8, !tbaa !24
  %49 = load double, ptr %11, align 8, !tbaa !29
  %50 = fcmp oge double %49, 0.000000e+00
  br i1 %50, label %51, label %57

51:                                               ; preds = %38
  %52 = load double, ptr %11, align 8, !tbaa !29
  %53 = getelementptr inbounds nuw %"class.g2o::SparseOptimizerTerminateAction", ptr %12, i32 0, i32 1
  %54 = load double, ptr %53, align 8, !tbaa !18
  %55 = fcmp olt double %52, %54
  br i1 %55, label %56, label %57

56:                                               ; preds = %51
  store i8 1, ptr %9, align 1, !tbaa !41
  br label %57

57:                                               ; preds = %56, %51, %38
  call void @llvm.lifetime.end.p0(i64 8, ptr %11) #3
  call void @llvm.lifetime.end.p0(i64 8, ptr %10) #3
  br label %59

58:                                               ; preds = %31
  store i8 1, ptr %9, align 1, !tbaa !41
  br label %59

59:                                               ; preds = %58, %57
  %60 = load i8, ptr %9, align 1, !tbaa !41, !range !42, !noundef !43
  %61 = trunc i8 %60 to i1
  br i1 %61, label %62, label %64

62:                                               ; preds = %59
  %63 = load ptr, ptr %7, align 8, !tbaa !34
  call void @_ZN3g2o30SparseOptimizerTerminateAction20setOptimizerStopFlagEPKNS_15SparseOptimizerEb(ptr noundef nonnull align 8 dereferenceable(32) %12, ptr noundef %63, i1 noundef zeroext true)
  br label %64

64:                                               ; preds = %62, %59
  call void @llvm.lifetime.end.p0(i64 1, ptr %9) #3
  br label %65

65:                                               ; preds = %64, %27
  br label %66

66:                                               ; preds = %65, %20
  call void @llvm.lifetime.end.p0(i64 8, ptr %8) #3
  call void @llvm.lifetime.end.p0(i64 8, ptr %7) #3
  ret ptr %12
}