; Function Attrs: mustprogress uwtable
define noundef nonnull ptr @_ZN3g2o30SparseOptimizerTerminateActionclEPKNS_10HyperGraphEPNS_16HyperGraphAction10ParametersE(ptr noundef nonnull returned align 8 dereferenceable(32) %0, ptr noundef nonnull %1, ptr noundef readonly captures(none) %2) unnamed_addr #5 align 2 {
  tail call void @_ZN3g2o15SparseOptimizer19computeActiveErrorsEv(ptr noundef nonnull align 8 dereferenceable(409) %1)
  %4 = getelementptr inbounds nuw i8, ptr %2, i64 8
  %5 = load i32, ptr %4, align 8, !tbaa !16
  %6 = icmp slt i32 %5, 0
  br i1 %6, label %7, label %13

7:                                                ; preds = %3
  %8 = getelementptr inbounds nuw i8, ptr %1, i64 288
  %9 = load ptr, ptr %8, align 8, !tbaa !19
  %.not.i = icmp eq ptr %9, null
  br i1 %.not.i, label %11, label %10

10:                                               ; preds = %7
  store i8 0, ptr %9, align 1, !tbaa !81
  br label %_ZN3g2o30SparseOptimizerTerminateAction20setOptimizerStopFlagEPKNS_15SparseOptimizerEb.exit

11:                                               ; preds = %7
  %12 = getelementptr inbounds nuw i8, ptr %0, i64 24
  store i8 0, ptr %12, align 8, !tbaa !14
  tail call void @_ZN3g2o15SparseOptimizer16setForceStopFlagEPb(ptr noundef nonnull align 8 dereferenceable(409) %1, ptr noundef nonnull %12)
  br label %_ZN3g2o30SparseOptimizerTerminateAction20setOptimizerStopFlagEPKNS_15SparseOptimizerEb.exit

13:                                               ; preds = %3
  %14 = icmp eq i32 %5, 0
  br i1 %14, label %15, label %18

15:                                               ; preds = %13
  %16 = tail call noundef double @_ZNK3g2o15SparseOptimizer16activeRobustChi2Ev(ptr noundef nonnull align 8 dereferenceable(409) %1)
  %17 = getelementptr inbounds nuw i8, ptr %0, i64 16
  store double %16, ptr %17, align 8, !tbaa !13
  br label %_ZN3g2o30SparseOptimizerTerminateAction20setOptimizerStopFlagEPKNS_15SparseOptimizerEb.exit

18:                                               ; preds = %13
  %19 = getelementptr inbounds nuw i8, ptr %0, i64 28
  %20 = load i32, ptr %19, align 4, !tbaa !15
  %21 = icmp slt i32 %5, %20
  br i1 %21, label %22, label %.critedge

22:                                               ; preds = %18
  %23 = tail call noundef double @_ZNK3g2o15SparseOptimizer16activeRobustChi2Ev(ptr noundef nonnull align 8 dereferenceable(409) %1)
  %24 = getelementptr inbounds nuw i8, ptr %0, i64 16
  %25 = load double, ptr %24, align 8, !tbaa !13
  %26 = fsub double %25, %23
  %27 = fdiv double %26, %23
  store double %23, ptr %24, align 8, !tbaa !13
  %28 = fcmp oge double %27, 0.000000e+00
  %29 = getelementptr inbounds nuw i8, ptr %0, i64 8
  %30 = load double, ptr %29, align 8
  %31 = fcmp olt double %27, %30
  %or.cond = select i1 %28, i1 %31, i1 false
  br i1 %or.cond, label %.critedge, label %_ZN3g2o30SparseOptimizerTerminateAction20setOptimizerStopFlagEPKNS_15SparseOptimizerEb.exit

.critedge:                                        ; preds = %22, %18
  %32 = getelementptr inbounds nuw i8, ptr %1, i64 288
  %33 = load ptr, ptr %32, align 8, !tbaa !19
  %.not.i20 = icmp eq ptr %33, null
  br i1 %.not.i20, label %35, label %34

34:                                               ; preds = %.critedge
  store i8 1, ptr %33, align 1, !tbaa !81
  br label %_ZN3g2o30SparseOptimizerTerminateAction20setOptimizerStopFlagEPKNS_15SparseOptimizerEb.exit

35:                                               ; preds = %.critedge
  %36 = getelementptr inbounds nuw i8, ptr %0, i64 24
  store i8 1, ptr %36, align 8, !tbaa !14
  tail call void @_ZN3g2o15SparseOptimizer16setForceStopFlagEPb(ptr noundef nonnull align 8 dereferenceable(409) %1, ptr noundef nonnull %36)
  br label %_ZN3g2o30SparseOptimizerTerminateAction20setOptimizerStopFlagEPKNS_15SparseOptimizerEb.exit

_ZN3g2o30SparseOptimizerTerminateAction20setOptimizerStopFlagEPKNS_15SparseOptimizerEb.exit: ; preds = %35, %34, %11, %10, %22, %15
  ret ptr %0
}